; Function Attrs: nounwind uwtable
define range(i32 -12, 1) i32 @ff_progress_frame_alloc(ptr noundef readonly captures(none) %0, ptr noundef writeonly captures(none) initializes((8, 16)) %1) local_unnamed_addr #0 {
  %3 = getelementptr inbounds nuw i8, ptr %0, i64 40
  %4 = load ptr, ptr %3, align 8, !tbaa !4
  %5 = getelementptr inbounds nuw i8, ptr %4, i64 24
  %6 = load ptr, ptr %5, align 8, !tbaa !248
  %7 = tail call ptr @av_refstruct_pool_get(ptr noundef %6) #10
  %8 = getelementptr inbounds nuw i8, ptr %1, i64 8
  store ptr %7, ptr %8, align 8, !tbaa !249
  %.not = icmp eq ptr %7, null
  br i1 %.not, label %12, label %9

9:                                                ; preds = %2
  %10 = getelementptr inbounds nuw i8, ptr %7, i64 96
  %11 = load ptr, ptr %10, align 8, !tbaa !252
  store ptr %11, ptr %1, align 8, !tbaa !255
  br label %12

12:                                               ; preds = %2, %9
  %.0 = phi i32 [ 0, %9 ], [ -12, %2 ]
  ret i32 %.0
}